; Function Attrs: null_pointer_is_valid sspstrong uwtable
define hidden i32 @samr_dissect_struct_DomGeneralInformation2(ptr noundef %0, i32 noundef %1, ptr noundef %2, ptr noundef %3, ptr noundef %4, ptr noundef %5, i32 noundef %6, i32 %7) local_unnamed_addr #0 {
  %9 = getelementptr inbounds nuw i8, ptr %4, i64 25
  %10 = load i8, ptr %9, align 1, !range !6, !noundef !7
  %11 = trunc nuw i8 %10 to i1
  %12 = and i32 %1, 7
  %.not = icmp eq i32 %12, 0
  %or.cond = or i1 %.not, %11
  %13 = and i32 %1, -8
  %14 = add i32 %13, 8
  %.0 = select i1 %or.cond, i32 %1, i32 %14
  %.not44 = icmp eq ptr %3, null
  br i1 %.not44, label %19, label %15

15:                                               ; preds = %8
  %16 = tail call ptr @proto_tree_add_item(ptr noundef nonnull %3, i32 noundef %6, ptr noundef %0, i32 noundef %.0, i32 noundef -1, i32 noundef 0)
  %17 = load i32, ptr @ett_samr_samr_DomGeneralInformation2, align 4
  %18 = tail call ptr @proto_item_add_subtree(ptr noundef %16, i32 noundef %17)
  br label %19

19:                                               ; preds = %15, %8
  %.042 = phi ptr [ %16, %15 ], [ null, %8 ]
  %.041 = phi ptr [ %18, %15 ], [ null, %8 ]
  %20 = load i32, ptr @hf_samr_samr_DomGeneralInformation2_general, align 4
  %21 = tail call i32 @samr_dissect_struct_DomGeneralInformation(ptr noundef %0, i32 noundef %.0, ptr noundef %2, ptr noundef %.041, ptr noundef %4, ptr noundef %5, i32 noundef %20, i32 poison)
  %22 = load i32, ptr @hf_samr_samr_DomGeneralInformation2_lockout_duration, align 4
  %23 = tail call i32 @dissect_ndr_uint64(ptr noundef %0, i32 noundef %21, ptr noundef %2, ptr noundef %.041, ptr noundef %4, ptr noundef %5, i32 noundef %22, ptr noundef null)
  %24 = load i32, ptr @hf_samr_samr_DomGeneralInformation2_lockout_window, align 4
  %25 = tail call i32 @dissect_ndr_uint64(ptr noundef %0, i32 noundef %23, ptr noundef %2, ptr noundef %.041, ptr noundef %4, ptr noundef %5, i32 noundef %24, ptr noundef null)
  %26 = load i32, ptr @hf_samr_samr_DomGeneralInformation2_lockout_threshold, align 4
  %27 = tail call i32 @PIDL_dissect_uint16(ptr noundef %0, i32 noundef %25, ptr noundef %2, ptr noundef %.041, ptr noundef %4, ptr noundef %5, i32 noundef %26, i32 noundef 0)
  %28 = sub i32 %27, %.0
  tail call void @proto_item_set_len(ptr noundef %.042, i32 noundef %28)
  %29 = getelementptr inbounds nuw i8, ptr %4, i64 64
  %30 = load ptr, ptr %29, align 8
  %31 = getelementptr inbounds nuw i8, ptr %30, i64 96
  %32 = load i32, ptr %31, align 8
  %33 = and i32 %32, 1
  %.not45 = icmp eq i32 %33, 0
  br i1 %.not45, label %41, label %34

34:                                               ; preds = %19
  %35 = load i8, ptr %9, align 1, !range !6, !noundef !7
  %36 = trunc nuw i8 %35 to i1
  %37 = and i32 %27, 7
  %.not46 = icmp eq i32 %37, 0
  %or.cond47 = or i1 %.not46, %36
  br i1 %or.cond47, label %41, label %38

38:                                               ; preds = %34
  %39 = and i32 %27, -8
  %40 = add i32 %39, 8
  br label %41

41:                                               ; preds = %34, %38, %19
  %.1 = phi i32 [ %27, %34 ], [ %40, %38 ], [ %27, %19 ]
  ret i32 %.1
}